; Function Attrs: nounwind uwtable
define nonnull ptr @l___private_Lean_Elab_Tactic_Try_0__Lean_Elab_Tactic_Try_isSorry___boxed(ptr noundef %0) local_unnamed_addr #0 {
  %2 = load ptr, ptr @l___private_Lean_Elab_Tactic_Try_0__Lean_Elab_Tactic_Try_isSorry___closed__2, align 8, !tbaa !4
  %3 = tail call zeroext i8 @l_Lean_Syntax_isOfKind(ptr noundef %0, ptr noundef %2) #5
  %4 = zext i8 %3 to i64
  %5 = shl nuw nsw i64 %4, 1
  %6 = or disjoint i64 %5, 1
  %7 = inttoptr i64 %6 to ptr
  ret ptr %7
}